; Function Attrs: nofree norecurse nosync nounwind memory(readwrite, inaccessiblemem: none) uwtable
define void @Aig_ManIncrementTravId(ptr noundef captures(none) %0) local_unnamed_addr #0 {
  %2 = getelementptr inbounds nuw i8, ptr %0, i64 312
  %3 = load i32, ptr %2, align 8, !tbaa !3
  %4 = icmp sgt i32 %3, 1073741822
  br i1 %4, label %5, label %Aig_ManCleanData.exit

5:                                                ; preds = %1
  %6 = getelementptr inbounds nuw i8, ptr %0, i64 32
  %7 = load ptr, ptr %6, align 8, !tbaa !21
  %8 = getelementptr i8, ptr %7, i64 4
  %.val8.i = load i32, ptr %8, align 4, !tbaa !22
  %9 = icmp sgt i32 %.val8.i, 0
  br i1 %9, label %.lr.ph.i, label %Aig_ManCleanData.exit

.lr.ph.i:                                         ; preds = %5, %17
  %10 = phi ptr [ %18, %17 ], [ %7, %5 ]
  %indvars.iv.i = phi i64 [ %indvars.iv.next.i, %17 ], [ 0, %5 ]
  %11 = getelementptr i8, ptr %10, i64 8
  %.val7.i = load ptr, ptr %11, align 8, !tbaa !24
  %12 = getelementptr inbounds nuw ptr, ptr %.val7.i, i64 %indvars.iv.i
  %13 = load ptr, ptr %12, align 8, !tbaa !25
  %14 = icmp eq ptr %13, null
  br i1 %14, label %17, label %15

15:                                               ; preds = %.lr.ph.i
  %16 = getelementptr inbounds nuw i8, ptr %13, i64 40
  store ptr null, ptr %16, align 8, !tbaa !26
  %.pre.i = load ptr, ptr %6, align 8, !tbaa !21
  br label %17

17:                                               ; preds = %15, %.lr.ph.i
  %18 = phi ptr [ %.pre.i, %15 ], [ %10, %.lr.ph.i ]
  %indvars.iv.next.i = add nuw nsw i64 %indvars.iv.i, 1
  %19 = getelementptr i8, ptr %18, i64 4
  %.val.i = load i32, ptr %19, align 4, !tbaa !22
  %20 = sext i32 %.val.i to i64
  %21 = icmp slt i64 %indvars.iv.next.i, %20
  br i1 %21, label %.lr.ph.i, label %Aig_ManCleanData.exit.loopexit, !llvm.loop !27

Aig_ManCleanData.exit.loopexit:                   ; preds = %17
  %.pre = load i32, ptr %2, align 8, !tbaa !3
  br label %Aig_ManCleanData.exit

Aig_ManCleanData.exit:                            ; preds = %Aig_ManCleanData.exit.loopexit, %5, %1
  %22 = phi i32 [ %.pre, %Aig_ManCleanData.exit.loopexit ], [ %3, %5 ], [ %3, %1 ]
  %23 = add nsw i32 %22, 1
  store i32 %23, ptr %2, align 8, !tbaa !3
  ret void
}